target datalayout = "e-m:e-p270:32:32-p271:32:32-p272:64:64-i64:64-i128:128-f80:128-n8:16:32:64-S128"
target triple = "x86_64-pc-linux-gnu"

%struct.lua_State = type { i8, i8, i8, i8, i8, i8, i8, ptr, ptr, ptr, ptr, ptr, ptr, ptr, ptr, i32, i32, i16, i16, i32, ptr, ptr, ptr, ptr, ptr }
%struct.CallInfo = type { ptr, ptr, ptr, ptr, i32, i32 }
%struct.Proto = type { i8, i8, i8, i8, i8, i8, i8, i8, ptr, ptr, ptr, ptr, ptr, i64, ptr, ptr, ptr, ptr, ptr, ptr, ptr, ptr, ptr, ptr, i32, i32, i32, i32, i32, i32, i32, i32, i32, i32 }
%struct.GCheader = type { i8, i8, i8 }
%struct.lua_TValue = type { %union.Value, [1 x i32], i32 }
%union.Value = type { ptr }
%struct.Closure = type { i8, i8, i8, i8, i8, i8, i8, ptr, ptr, %union.anon.0 }
%union.anon.0 = type { %struct.anon }
%struct.anon = type { ptr, ptr, ptr, [1 x %struct.lua_TValue] }
%struct.anon.1 = type { ptr, [1 x %struct.lua_TValue] }

; Function Attrs: mustprogress nounwind uwtable
define internal noundef ptr @_ZL11getluaprotoP8CallInfo(ptr noundef %0) #2 {
  %2 = alloca ptr, align 8
  store ptr %0, ptr %2, align 8, !tbaa !23
  %3 = load ptr, ptr %2, align 8, !tbaa !23
  %4 = getelementptr inbounds nuw %struct.CallInfo, ptr %3, i32 0, i32 1
  %5 = load ptr, ptr %4, align 8, !tbaa !40
  %6 = getelementptr inbounds nuw %struct.lua_TValue, ptr %5, i32 0, i32 2
  %7 = load i32, ptr %6, align 4, !tbaa !41
  %8 = icmp eq i32 %7, 7
  br i1 %8, label %9, label %27

9:                                                ; preds = %1
  %10 = load ptr, ptr %2, align 8, !tbaa !23
  %11 = getelementptr inbounds nuw %struct.CallInfo, ptr %10, i32 0, i32 1
  %12 = load ptr, ptr %11, align 8, !tbaa !40
  %13 = getelementptr inbounds nuw %struct.lua_TValue, ptr %12, i32 0, i32 0
  %14 = load ptr, ptr %13, align 8, !tbaa !37
  %15 = getelementptr inbounds nuw %struct.Closure, ptr %14, i32 0, i32 3
  %16 = load i8, ptr %15, align 1, !tbaa !43
  %17 = icmp ne i8 %16, 0
  br i1 %17, label %27, label %18

18:                                               ; preds = %9
  %19 = load ptr, ptr %2, align 8, !tbaa !23
  %20 = getelementptr inbounds nuw %struct.CallInfo, ptr %19, i32 0, i32 1
  %21 = load ptr, ptr %20, align 8, !tbaa !40
  %22 = getelementptr inbounds nuw %struct.lua_TValue, ptr %21, i32 0, i32 0
  %23 = load ptr, ptr %22, align 8, !tbaa !37
  %24 = getelementptr inbounds nuw %struct.Closure, ptr %23, i32 0, i32 9
  %25 = getelementptr inbounds nuw %struct.anon.1, ptr %24, i32 0, i32 0
  %26 = load ptr, ptr %25, align 8, !tbaa !37
  br label %28

27:                                               ; preds = %9, %1
  br label %28

28:                                               ; preds = %27, %18
  %29 = phi ptr [ %26, %18 ], [ null, %27 ]
  ret ptr %29
}

; Function Attrs: mustprogress uwtable
define dso_local noundef i32 @_Z15lua_getargumentP9lua_Stateii(ptr noundef %0, i32 noundef %1, i32 noundef %2) #0 {
  %4 = alloca i32, align 4
  %5 = alloca ptr, align 8
  %6 = alloca i32, align 4
  %7 = alloca i32, align 4
  %8 = alloca ptr, align 8
  %9 = alloca i32, align 4
  %10 = alloca ptr, align 8
  %11 = alloca i32, align 4
  store ptr %0, ptr %5, align 8, !tbaa !4
  store i32 %1, ptr %6, align 4, !tbaa !9
  store i32 %2, ptr %7, align 4, !tbaa !9
  %12 = load i32, ptr %6, align 4, !tbaa !9
  %13 = load ptr, ptr %5, align 8, !tbaa !4
  %14 = getelementptr inbounds nuw %struct.lua_State, ptr %13, i32 0, i32 10
  %15 = load ptr, ptr %14, align 8, !tbaa !11
  %16 = load ptr, ptr %5, align 8, !tbaa !4
  %17 = getelementptr inbounds nuw %struct.lua_State, ptr %16, i32 0, i32 14
  %18 = load ptr, ptr %17, align 8, !tbaa !22
  %19 = ptrtoint ptr %15 to i64
  %20 = ptrtoint ptr %18 to i64
  %21 = sub i64 %19, %20
  %22 = sdiv exact i64 %21, 40
  %23 = trunc i64 %22 to i32
  %24 = icmp uge i32 %12, %23
  br i1 %24, label %25, label %26

25:                                               ; preds = %3
  store i32 0, ptr %4, align 4
  br label %124

26:                                               ; preds = %3
  call void @llvm.lifetime.start.p0(i64 8, ptr %8) #11
  %27 = load ptr, ptr %5, align 8, !tbaa !4
  %28 = getelementptr inbounds nuw %struct.lua_State, ptr %27, i32 0, i32 10
  %29 = load ptr, ptr %28, align 8, !tbaa !11
  %30 = load i32, ptr %6, align 4, !tbaa !9
  %31 = sext i32 %30 to i64
  %32 = sub i64 0, %31
  %33 = getelementptr inbounds %struct.CallInfo, ptr %29, i64 %32
  store ptr %33, ptr %8, align 8, !tbaa !23
  %34 = load ptr, ptr %8, align 8, !tbaa !23
  %35 = getelementptr inbounds nuw %struct.CallInfo, ptr %34, i32 0, i32 5
  %36 = load i32, ptr %35, align 4, !tbaa !24
  %37 = and i32 %36, 4
  %38 = icmp ne i32 %37, 0
  br i1 %38, label %39, label %40

39:                                               ; preds = %26
  store i32 0, ptr %4, align 4
  store i32 1, ptr %9, align 4
  br label %123

40:                                               ; preds = %26
  call void @llvm.lifetime.start.p0(i64 8, ptr %10) #11
  %41 = load ptr, ptr %8, align 8, !tbaa !23
  %42 = call noundef ptr @_ZL11getluaprotoP8CallInfo(ptr noundef %41)
  store ptr %42, ptr %10, align 8, !tbaa !27
  call void @llvm.lifetime.start.p0(i64 4, ptr %11) #11
  store i32 0, ptr %11, align 4, !tbaa !9
  %43 = load ptr, ptr %10, align 8, !tbaa !27
  %44 = icmp ne ptr %43, null
  br i1 %44, label %45, label %121

45:                                               ; preds = %40
  %46 = load i32, ptr %7, align 4, !tbaa !9
  %47 = icmp sgt i32 %46, 0
  br i1 %47, label %48, label %121

48:                                               ; preds = %45
  %49 = load i32, ptr %7, align 4, !tbaa !9
  %50 = load ptr, ptr %10, align 8, !tbaa !27
  %51 = getelementptr inbounds nuw %struct.Proto, ptr %50, i32 0, i32 4
  %52 = load i8, ptr %51, align 4, !tbaa !29
  %53 = zext i8 %52 to i32
  %54 = icmp sle i32 %49, %53
  br i1 %54, label %55, label %78

55:                                               ; preds = %48
  %56 = load ptr, ptr %5, align 8, !tbaa !4
  %57 = getelementptr inbounds %struct.lua_State, ptr %56, i64 0
  %58 = getelementptr inbounds nuw %struct.GCheader, ptr %57, i32 0, i32 1
  %59 = load i8, ptr %58, align 1, !tbaa !37
  %60 = zext i8 %59 to i32
  %61 = and i32 %60, 4
  %62 = icmp ne i32 %61, 0
  br i1 %62, label %63, label %69

63:                                               ; preds = %55
  %64 = load ptr, ptr %5, align 8, !tbaa !4
  %65 = load ptr, ptr %5, align 8, !tbaa !4
  %66 = getelementptr inbounds %struct.lua_State, ptr %65, i64 0
  %67 = load ptr, ptr %5, align 8, !tbaa !4
  %68 = getelementptr inbounds nuw %struct.lua_State, ptr %67, i32 0, i32 22
  call void @_Z16luaC_barrierbackP9lua_StateP8GCObjectPS2_(ptr noundef %64, ptr noundef %66, ptr noundef %68)
  br label %69

69:                                               ; preds = %63, %55
  %70 = load ptr, ptr %5, align 8, !tbaa !4
  %71 = load ptr, ptr %8, align 8, !tbaa !23
  %72 = getelementptr inbounds nuw %struct.CallInfo, ptr %71, i32 0, i32 0
  %73 = load ptr, ptr %72, align 8, !tbaa !38
  %74 = load i32, ptr %7, align 4, !tbaa !9
  %75 = sub nsw i32 %74, 1
  %76 = sext i32 %75 to i64
  %77 = getelementptr inbounds %struct.lua_TValue, ptr %73, i64 %76
  call void @_Z15luaA_pushobjectP9lua_StatePK10lua_TValue(ptr noundef %70, ptr noundef %77)
  store i32 1, ptr %11, align 4, !tbaa !9
  br label %120

78:                                               ; preds = %48
  %79 = load ptr, ptr %10, align 8, !tbaa !27
  %80 = getelementptr inbounds nuw %struct.Proto, ptr %79, i32 0, i32 5
  %81 = load i8, ptr %80, align 1, !tbaa !39
  %82 = icmp ne i8 %81, 0
  br i1 %82, label %83, label %119

83:                                               ; preds = %78
  %84 = load i32, ptr %7, align 4, !tbaa !9
  %85 = sext i32 %84 to i64
  %86 = load ptr, ptr %8, align 8, !tbaa !23
  %87 = getelementptr inbounds nuw %struct.CallInfo, ptr %86, i32 0, i32 0
  %88 = load ptr, ptr %87, align 8, !tbaa !38
  %89 = load ptr, ptr %8, align 8, !tbaa !23
  %90 = getelementptr inbounds nuw %struct.CallInfo, ptr %89, i32 0, i32 1
  %91 = load ptr, ptr %90, align 8, !tbaa !40
  %92 = ptrtoint ptr %88 to i64
  %93 = ptrtoint ptr %91 to i64
  %94 = sub i64 %92, %93
  %95 = sdiv exact i64 %94, 16
  %96 = icmp slt i64 %85, %95
  br i1 %96, label %97, label %119

97:                                               ; preds = %83
  %98 = load ptr, ptr %5, align 8, !tbaa !4
  %99 = getelementptr inbounds %struct.lua_State, ptr %98, i64 0
  %100 = getelementptr inbounds nuw %struct.GCheader, ptr %99, i32 0, i32 1
  %101 = load i8, ptr %100, align 1, !tbaa !37
  %102 = zext i8 %101 to i32
  %103 = and i32 %102, 4
  %104 = icmp ne i32 %103, 0
  br i1 %104, label %105, label %111

105:                                              ; preds = %97
  %106 = load ptr, ptr %5, align 8, !tbaa !4
  %107 = load ptr, ptr %5, align 8, !tbaa !4
  %108 = getelementptr inbounds %struct.lua_State, ptr %107, i64 0
  %109 = load ptr, ptr %5, align 8, !tbaa !4
  %110 = getelementptr inbounds nuw %struct.lua_State, ptr %109, i32 0, i32 22
  call void @_Z16luaC_barrierbackP9lua_StateP8GCObjectPS2_(ptr noundef %106, ptr noundef %108, ptr noundef %110)
  br label %111

111:                                              ; preds = %105, %97
  %112 = load ptr, ptr %5, align 8, !tbaa !4
  %113 = load ptr, ptr %8, align 8, !tbaa !23
  %114 = getelementptr inbounds nuw %struct.CallInfo, ptr %113, i32 0, i32 1
  %115 = load ptr, ptr %114, align 8, !tbaa !40
  %116 = load i32, ptr %7, align 4, !tbaa !9
  %117 = sext i32 %116 to i64
  %118 = getelementptr inbounds %struct.lua_TValue, ptr %115, i64 %117
  call void @_Z15luaA_pushobjectP9lua_StatePK10lua_TValue(ptr noundef %112, ptr noundef %118)
  store i32 1, ptr %11, align 4, !tbaa !9
  br label %119

119:                                              ; preds = %111, %83, %78
  br label %120

120:                                              ; preds = %119, %69
  br label %121

121:                                              ; preds = %120, %45, %40
  %122 = load i32, ptr %11, align 4, !tbaa !9
  store i32 %122, ptr %4, align 4
  store i32 1, ptr %9, align 4
  call void @llvm.lifetime.end.p0(i64 4, ptr %11) #11
  call void @llvm.lifetime.end.p0(i64 8, ptr %10) #11
  br label %123

123:                                              ; preds = %121, %39
  call void @llvm.lifetime.end.p0(i64 8, ptr %8) #11
  br label %124

124:                                              ; preds = %123, %25
  %125 = load i32, ptr %4, align 4
  ret i32 %125
}