; Function Attrs: mustprogress uwtable
define dso_local noundef range(i32 0, 2) i32 @_Z15lua_getargumentP9lua_Stateii(ptr noundef %0, i32 noundef %1, i32 noundef %2) local_unnamed_addr #0 {
  %4 = getelementptr inbounds nuw i8, ptr %0, i64 32
  %5 = load ptr, ptr %4, align 8, !tbaa !4
  %6 = getelementptr inbounds nuw i8, ptr %0, i64 64
  %7 = load ptr, ptr %6, align 8, !tbaa !19
  %8 = ptrtoint ptr %5 to i64
  %9 = ptrtoint ptr %7 to i64
  %10 = sub i64 %8, %9
  %11 = sdiv exact i64 %10, 40
  %12 = trunc i64 %11 to i32
  %.not = icmp ult i32 %1, %12
  br i1 %.not, label %13, label %_ZL11getluaprotoP8CallInfo.exit.thread

13:                                               ; preds = %3
  %14 = sext i32 %1 to i64
  %15 = sub nsw i64 0, %14
  %16 = getelementptr inbounds %struct.CallInfo, ptr %5, i64 %15
  %17 = getelementptr inbounds nuw i8, ptr %16, i64 36
  %18 = load i32, ptr %17, align 4, !tbaa !20
  %19 = and i32 %18, 4
  %.not36 = icmp eq i32 %19, 0
  br i1 %.not36, label %20, label %_ZL11getluaprotoP8CallInfo.exit.thread

20:                                               ; preds = %13
  %21 = getelementptr i8, ptr %16, i64 8
  %.val = load ptr, ptr %21, align 8, !tbaa !23
  %22 = getelementptr inbounds nuw i8, ptr %.val, i64 12
  %23 = load i32, ptr %22, align 4, !tbaa !24
  %24 = icmp eq i32 %23, 7
  br i1 %24, label %25, label %_ZL11getluaprotoP8CallInfo.exit.thread

25:                                               ; preds = %20
  %26 = load ptr, ptr %.val, align 8, !tbaa !26
  %27 = getelementptr inbounds nuw i8, ptr %26, i64 3
  %28 = load i8, ptr %27, align 1, !tbaa !27
  %.not.i = icmp eq i8 %28, 0
  br i1 %.not.i, label %_ZL11getluaprotoP8CallInfo.exit, label %_ZL11getluaprotoP8CallInfo.exit.thread

_ZL11getluaprotoP8CallInfo.exit:                  ; preds = %25
  %29 = getelementptr inbounds nuw i8, ptr %26, i64 24
  %30 = load ptr, ptr %29, align 8, !tbaa !26
  %31 = icmp ne ptr %30, null
  %32 = icmp sgt i32 %2, 0
  %or.cond = and i1 %32, %31
  br i1 %or.cond, label %33, label %_ZL11getluaprotoP8CallInfo.exit.thread

33:                                               ; preds = %_ZL11getluaprotoP8CallInfo.exit
  %34 = getelementptr inbounds nuw i8, ptr %30, i64 4
  %35 = load i8, ptr %34, align 4, !tbaa !29
  %36 = zext i8 %35 to i32
  %.not37 = icmp samesign ugt i32 %2, %36
  br i1 %.not37, label %48, label %37

37:                                               ; preds = %33
  %38 = getelementptr inbounds nuw i8, ptr %0, i64 1
  %39 = load i8, ptr %38, align 1, !tbaa !26
  %40 = and i8 %39, 4
  %.not40 = icmp eq i8 %40, 0
  br i1 %.not40, label %43, label %41

41:                                               ; preds = %37
  %42 = getelementptr inbounds nuw i8, ptr %0, i64 104
  tail call void @_Z16luaC_barrierbackP9lua_StateP8GCObjectPS2_(ptr noundef nonnull %0, ptr noundef nonnull %0, ptr noundef nonnull %42)
  br label %43

43:                                               ; preds = %41, %37
  %44 = load ptr, ptr %16, align 8, !tbaa !37
  %45 = zext nneg i32 %2 to i64
  %46 = getelementptr %struct.lua_TValue, ptr %44, i64 %45
  %47 = getelementptr i8, ptr %46, i64 -16
  br label %_ZL11getluaprotoP8CallInfo.exit.thread.sink.split

48:                                               ; preds = %33
  %49 = getelementptr inbounds nuw i8, ptr %30, i64 5
  %50 = load i8, ptr %49, align 1, !tbaa !38
  %.not38 = icmp eq i8 %50, 0
  br i1 %.not38, label %_ZL11getluaprotoP8CallInfo.exit.thread, label %51

51:                                               ; preds = %48
  %52 = zext nneg i32 %2 to i64
  %53 = load ptr, ptr %16, align 8, !tbaa !37
  %54 = ptrtoint ptr %53 to i64
  %55 = ptrtoint ptr %.val to i64
  %56 = sub i64 %54, %55
  %57 = ashr exact i64 %56, 4
  %58 = icmp sgt i64 %57, %52
  br i1 %58, label %59, label %_ZL11getluaprotoP8CallInfo.exit.thread

59:                                               ; preds = %51
  %60 = getelementptr inbounds nuw i8, ptr %0, i64 1
  %61 = load i8, ptr %60, align 1, !tbaa !26
  %62 = and i8 %61, 4
  %.not39 = icmp eq i8 %62, 0
  br i1 %.not39, label %65, label %63

63:                                               ; preds = %59
  %64 = getelementptr inbounds nuw i8, ptr %0, i64 104
  tail call void @_Z16luaC_barrierbackP9lua_StateP8GCObjectPS2_(ptr noundef nonnull %0, ptr noundef nonnull %0, ptr noundef nonnull %64)
  %.pre = load ptr, ptr %21, align 8, !tbaa !23
  br label %65

65:                                               ; preds = %63, %59
  %66 = phi ptr [ %.pre, %63 ], [ %.val, %59 ]
  %67 = getelementptr inbounds nuw %struct.lua_TValue, ptr %66, i64 %52
  br label %_ZL11getluaprotoP8CallInfo.exit.thread.sink.split

_ZL11getluaprotoP8CallInfo.exit.thread.sink.split: ; preds = %65, %43
  %.sink = phi ptr [ %47, %43 ], [ %67, %65 ]
  tail call void @_Z15luaA_pushobjectP9lua_StatePK10lua_TValue(ptr noundef nonnull %0, ptr noundef %.sink)
  br label %_ZL11getluaprotoP8CallInfo.exit.thread

_ZL11getluaprotoP8CallInfo.exit.thread:           ; preds = %_ZL11getluaprotoP8CallInfo.exit.thread.sink.split, %20, %25, %13, %51, %48, %_ZL11getluaprotoP8CallInfo.exit, %3
  %.031 = phi i32 [ 0, %3 ], [ 0, %13 ], [ 0, %51 ], [ 0, %48 ], [ 0, %_ZL11getluaprotoP8CallInfo.exit ], [ 0, %25 ], [ 0, %20 ], [ 1, %_ZL11getluaprotoP8CallInfo.exit.thread.sink.split ]
  ret i32 %.031
}